target datalayout = "e-m:e-p270:32:32-p271:32:32-p272:64:64-i64:64-i128:128-f80:128-n8:16:32:64-S128"
target triple = "x86_64-pc-linux-gnu"

%struct.List = type { i32, i32, i32, ptr, [0 x %union.ListCell] }
%union.ListCell = type { ptr }
%struct.PredIterInfoData = type { ptr, ptr, ptr, ptr, ptr }
%struct.Node = type { i32 }
%struct.ScalarArrayOpExpr = type { %struct.Expr, i32, i32, i32, i32, i8, i32, ptr, i32 }
%struct.Expr = type { i32 }
%struct.Const = type { %struct.Expr, i32, i32, i32, i32, i64, i8, i8, i32 }
%struct.ArrayType = type { i32, i32, i32, i32 }
%struct.ArrayExpr = type { %struct.Expr, i32, i32, i32, ptr, i8, i32 }
%struct.BoolExpr = type { %struct.Expr, i32, ptr, i32 }

; Function Attrs: inlinehint nounwind uwtable
define internal i32 @list_length(ptr noundef %0) #2 {
  %2 = alloca ptr, align 8
  store ptr %0, ptr %2, align 8
  %3 = load ptr, ptr %2, align 8
  %4 = icmp ne ptr %3, null
  br i1 %4, label %5, label %9

5:                                                ; preds = %1
  %6 = load ptr, ptr %2, align 8
  %7 = getelementptr inbounds nuw %struct.List, ptr %6, i32 0, i32 1
  %8 = load i32, ptr %7, align 4
  br label %10

9:                                                ; preds = %1
  br label %10

10:                                               ; preds = %9, %5
  %11 = phi i32 [ %8, %5 ], [ 0, %9 ]
  ret i32 %11
}

; Function Attrs: inlinehint nounwind uwtable
define internal ptr @DatumGetPointer(i64 noundef %0) #2 {
  %2 = alloca i64, align 8
  store i64 %0, ptr %2, align 8
  %3 = load i64, ptr %2, align 8
  %4 = inttoptr i64 %3 to ptr
  ret ptr %4
}

; Function Attrs: inlinehint nounwind uwtable
define internal ptr @list_nth_cell(ptr noundef %0, i32 noundef %1) #2 {
  %3 = alloca ptr, align 8
  %4 = alloca i32, align 4
  store ptr %0, ptr %3, align 8
  store i32 %1, ptr %4, align 4
  %5 = load ptr, ptr %3, align 8
  %6 = getelementptr inbounds nuw %struct.List, ptr %5, i32 0, i32 3
  %7 = load ptr, ptr %6, align 8
  %8 = load i32, ptr %4, align 4
  %9 = sext i32 %8 to i64
  %10 = getelementptr inbounds %union.ListCell, ptr %7, i64 %9
  ret ptr %10
}

; Function Attrs: inlinehint nounwind uwtable
define internal zeroext i1 @is_orclause(ptr noundef %0) #2 {
  %2 = alloca ptr, align 8
  store ptr %0, ptr %2, align 8
  %3 = load ptr, ptr %2, align 8
  %4 = icmp ne ptr %3, null
  br i1 %4, label %5, label %15

5:                                                ; preds = %1
  %6 = load ptr, ptr %2, align 8
  %7 = getelementptr inbounds nuw %struct.Node, ptr %6, i32 0, i32 0
  %8 = load i32, ptr %7, align 4
  %9 = icmp eq i32 %8, 21
  br i1 %9, label %10, label %15

10:                                               ; preds = %5
  %11 = load ptr, ptr %2, align 8
  %12 = getelementptr inbounds nuw %struct.BoolExpr, ptr %11, i32 0, i32 1
  %13 = load i32, ptr %12, align 4
  %14 = icmp eq i32 %13, 1
  br label %15

15:                                               ; preds = %10, %5, %1
  %16 = phi i1 [ false, %5 ], [ false, %1 ], [ %14, %10 ]
  ret i1 %16
}

; Function Attrs: inlinehint nounwind uwtable
define internal zeroext i1 @is_andclause(ptr noundef %0) #2 {
  %2 = alloca ptr, align 8
  store ptr %0, ptr %2, align 8
  %3 = load ptr, ptr %2, align 8
  %4 = icmp ne ptr %3, null
  br i1 %4, label %5, label %15

5:                                                ; preds = %1
  %6 = load ptr, ptr %2, align 8
  %7 = getelementptr inbounds nuw %struct.Node, ptr %6, i32 0, i32 0
  %8 = load i32, ptr %7, align 4
  %9 = icmp eq i32 %8, 21
  br i1 %9, label %10, label %15

10:                                               ; preds = %5
  %11 = load ptr, ptr %2, align 8
  %12 = getelementptr inbounds nuw %struct.BoolExpr, ptr %11, i32 0, i32 1
  %13 = load i32, ptr %12, align 4
  %14 = icmp eq i32 %13, 0
  br label %15

15:                                               ; preds = %10, %5, %1
  %16 = phi i1 [ false, %5 ], [ false, %1 ], [ %14, %10 ]
  ret i1 %16
}

; Function Attrs: nounwind uwtable
define internal i32 @predicate_classify(ptr noundef %0, ptr noundef %1) #0 {
  %3 = alloca i32, align 4
  %4 = alloca ptr, align 8
  %5 = alloca ptr, align 8
  %6 = alloca ptr, align 8
  %7 = alloca ptr, align 8
  %8 = alloca ptr, align 8
  %9 = alloca i32, align 4
  %10 = alloca i32, align 4
  store ptr %0, ptr %4, align 8
  store ptr %1, ptr %5, align 8
  %11 = load ptr, ptr %4, align 8
  %12 = getelementptr inbounds nuw %struct.Node, ptr %11, i32 0, i32 0
  %13 = load i32, ptr %12, align 4
  %14 = icmp eq i32 %13, 1
  br i1 %14, label %15, label %22

15:                                               ; preds = %2
  %16 = load ptr, ptr %5, align 8
  %17 = getelementptr inbounds nuw %struct.PredIterInfoData, ptr %16, i32 0, i32 2
  store ptr @list_startup_fn, ptr %17, align 8
  %18 = load ptr, ptr %5, align 8
  %19 = getelementptr inbounds nuw %struct.PredIterInfoData, ptr %18, i32 0, i32 3
  store ptr @list_next_fn, ptr %19, align 8
  %20 = load ptr, ptr %5, align 8
  %21 = getelementptr inbounds nuw %struct.PredIterInfoData, ptr %20, i32 0, i32 4
  store ptr @list_cleanup_fn, ptr %21, align 8
  store i32 1, ptr %3, align 4
  br label %133

22:                                               ; preds = %2
  %23 = load ptr, ptr %4, align 8
  %24 = call zeroext i1 @is_andclause(ptr noundef %23)
  br i1 %24, label %25, label %32

25:                                               ; preds = %22
  %26 = load ptr, ptr %5, align 8
  %27 = getelementptr inbounds nuw %struct.PredIterInfoData, ptr %26, i32 0, i32 2
  store ptr @boolexpr_startup_fn, ptr %27, align 8
  %28 = load ptr, ptr %5, align 8
  %29 = getelementptr inbounds nuw %struct.PredIterInfoData, ptr %28, i32 0, i32 3
  store ptr @list_next_fn, ptr %29, align 8
  %30 = load ptr, ptr %5, align 8
  %31 = getelementptr inbounds nuw %struct.PredIterInfoData, ptr %30, i32 0, i32 4
  store ptr @list_cleanup_fn, ptr %31, align 8
  store i32 1, ptr %3, align 4
  br label %133

32:                                               ; preds = %22
  %33 = load ptr, ptr %4, align 8
  %34 = call zeroext i1 @is_orclause(ptr noundef %33)
  br i1 %34, label %35, label %42

35:                                               ; preds = %32
  %36 = load ptr, ptr %5, align 8
  %37 = getelementptr inbounds nuw %struct.PredIterInfoData, ptr %36, i32 0, i32 2
  store ptr @boolexpr_startup_fn, ptr %37, align 8
  %38 = load ptr, ptr %5, align 8
  %39 = getelementptr inbounds nuw %struct.PredIterInfoData, ptr %38, i32 0, i32 3
  store ptr @list_next_fn, ptr %39, align 8
  %40 = load ptr, ptr %5, align 8
  %41 = getelementptr inbounds nuw %struct.PredIterInfoData, ptr %40, i32 0, i32 4
  store ptr @list_cleanup_fn, ptr %41, align 8
  store i32 2, ptr %3, align 4
  br label %133

42:                                               ; preds = %32
  %43 = load ptr, ptr %4, align 8
  %44 = getelementptr inbounds nuw %struct.Node, ptr %43, i32 0, i32 0
  %45 = load i32, ptr %44, align 4
  %46 = icmp eq i32 %45, 20
  br i1 %46, label %47, label %132

47:                                               ; preds = %42
  call void @llvm.lifetime.start.p0(i64 8, ptr %6) #7
  %48 = load ptr, ptr %4, align 8
  store ptr %48, ptr %6, align 8
  call void @llvm.lifetime.start.p0(i64 8, ptr %7) #7
  %49 = load ptr, ptr %6, align 8
  %50 = getelementptr inbounds nuw %struct.ScalarArrayOpExpr, ptr %49, i32 0, i32 7
  %51 = load ptr, ptr %50, align 8
  %52 = call ptr @list_nth_cell(ptr noundef %51, i32 noundef 1)
  %53 = load ptr, ptr %52, align 8
  store ptr %53, ptr %7, align 8
  %54 = load ptr, ptr %7, align 8
  %55 = icmp ne ptr %54, null
  br i1 %55, label %56, label %96

56:                                               ; preds = %47
  %57 = load ptr, ptr %7, align 8
  %58 = getelementptr inbounds nuw %struct.Node, ptr %57, i32 0, i32 0
  %59 = load i32, ptr %58, align 4
  %60 = icmp eq i32 %59, 7
  br i1 %60, label %61, label %96

61:                                               ; preds = %56
  %62 = load ptr, ptr %7, align 8
  %63 = getelementptr inbounds nuw %struct.Const, ptr %62, i32 0, i32 6
  %64 = load i8, ptr %63, align 8, !range !4, !noundef !5
  %65 = trunc i8 %64 to i1
  br i1 %65, label %96, label %66

66:                                               ; preds = %61
  call void @llvm.lifetime.start.p0(i64 8, ptr %8) #7
  call void @llvm.lifetime.start.p0(i64 4, ptr %9) #7
  %67 = load ptr, ptr %7, align 8
  %68 = getelementptr inbounds nuw %struct.Const, ptr %67, i32 0, i32 5
  %69 = load i64, ptr %68, align 8
  %70 = call ptr @DatumGetPointer(i64 noundef %69)
  %71 = call ptr @pg_detoast_datum(ptr noundef %70)
  store ptr %71, ptr %8, align 8
  %72 = load ptr, ptr %8, align 8
  %73 = getelementptr inbounds nuw %struct.ArrayType, ptr %72, i32 0, i32 1
  %74 = load i32, ptr %73, align 4
  %75 = load ptr, ptr %8, align 8
  %76 = getelementptr inbounds nuw i8, ptr %75, i64 16
  %77 = call i32 @ArrayGetNItems(i32 noundef %74, ptr noundef %76)
  store i32 %77, ptr %9, align 4
  %78 = load i32, ptr %9, align 4
  %79 = icmp sle i32 %78, 100
  br i1 %79, label %80, label %92

80:                                               ; preds = %66
  %81 = load ptr, ptr %5, align 8
  %82 = getelementptr inbounds nuw %struct.PredIterInfoData, ptr %81, i32 0, i32 2
  store ptr @arrayconst_startup_fn, ptr %82, align 8
  %83 = load ptr, ptr %5, align 8
  %84 = getelementptr inbounds nuw %struct.PredIterInfoData, ptr %83, i32 0, i32 3
  store ptr @arrayconst_next_fn, ptr %84, align 8
  %85 = load ptr, ptr %5, align 8
  %86 = getelementptr inbounds nuw %struct.PredIterInfoData, ptr %85, i32 0, i32 4
  store ptr @arrayconst_cleanup_fn, ptr %86, align 8
  %87 = load ptr, ptr %6, align 8
  %88 = getelementptr inbounds nuw %struct.ScalarArrayOpExpr, ptr %87, i32 0, i32 5
  %89 = load i8, ptr %88, align 4, !range !4, !noundef !5
  %90 = trunc i8 %89 to i1
  %91 = select i1 %90, i32 2, i32 1
  store i32 %91, ptr %3, align 4
  store i32 1, ptr %10, align 4
  br label %93

92:                                               ; preds = %66
  store i32 0, ptr %10, align 4
  br label %93

93:                                               ; preds = %92, %80
  call void @llvm.lifetime.end.p0(i64 4, ptr %9) #7
  call void @llvm.lifetime.end.p0(i64 8, ptr %8) #7
  %94 = load i32, ptr %10, align 4
  switch i32 %94, label %129 [
    i32 0, label %95
  ]

95:                                               ; preds = %93
  br label %128

96:                                               ; preds = %61, %56, %47
  %97 = load ptr, ptr %7, align 8
  %98 = icmp ne ptr %97, null
  br i1 %98, label %99, label %127

99:                                               ; preds = %96
  %100 = load ptr, ptr %7, align 8
  %101 = getelementptr inbounds nuw %struct.Node, ptr %100, i32 0, i32 0
  %102 = load i32, ptr %101, align 4
  %103 = icmp eq i32 %102, 35
  br i1 %103, label %104, label %127

104:                                              ; preds = %99
  %105 = load ptr, ptr %7, align 8
  %106 = getelementptr inbounds nuw %struct.ArrayExpr, ptr %105, i32 0, i32 5
  %107 = load i8, ptr %106, align 8, !range !4, !noundef !5
  %108 = trunc i8 %107 to i1
  br i1 %108, label %127, label %109

109:                                              ; preds = %104
  %110 = load ptr, ptr %7, align 8
  %111 = getelementptr inbounds nuw %struct.ArrayExpr, ptr %110, i32 0, i32 4
  %112 = load ptr, ptr %111, align 8
  %113 = call i32 @list_length(ptr noundef %112)
  %114 = icmp sle i32 %113, 100
  br i1 %114, label %115, label %127

115:                                              ; preds = %109
  %116 = load ptr, ptr %5, align 8
  %117 = getelementptr inbounds nuw %struct.PredIterInfoData, ptr %116, i32 0, i32 2
  store ptr @arrayexpr_startup_fn, ptr %117, align 8
  %118 = load ptr, ptr %5, align 8
  %119 = getelementptr inbounds nuw %struct.PredIterInfoData, ptr %118, i32 0, i32 3
  store ptr @arrayexpr_next_fn, ptr %119, align 8
  %120 = load ptr, ptr %5, align 8
  %121 = getelementptr inbounds nuw %struct.PredIterInfoData, ptr %120, i32 0, i32 4
  store ptr @arrayexpr_cleanup_fn, ptr %121, align 8
  %122 = load ptr, ptr %6, align 8
  %123 = getelementptr inbounds nuw %struct.ScalarArrayOpExpr, ptr %122, i32 0, i32 5
  %124 = load i8, ptr %123, align 4, !range !4, !noundef !5
  %125 = trunc i8 %124 to i1
  %126 = select i1 %125, i32 2, i32 1
  store i32 %126, ptr %3, align 4
  store i32 1, ptr %10, align 4
  br label %129

127:                                              ; preds = %109, %104, %99, %96
  br label %128

128:                                              ; preds = %127, %95
  store i32 0, ptr %10, align 4
  br label %129

129:                                              ; preds = %128, %115, %93
  call void @llvm.lifetime.end.p0(i64 8, ptr %7) #7
  call void @llvm.lifetime.end.p0(i64 8, ptr %6) #7
  %130 = load i32, ptr %10, align 4
  switch i32 %130, label %135 [
    i32 0, label %131
    i32 1, label %133
  ]

131:                                              ; preds = %129
  br label %132

132:                                              ; preds = %131, %42
  store i32 0, ptr %3, align 4
  br label %133

133:                                              ; preds = %132, %129, %35, %25, %15
  %134 = load i32, ptr %3, align 4
  ret i32 %134

135:                                              ; preds = %129
  unreachable
}