; Function Attrs: nounwind uwtable
define internal fastcc range(i32 0, 3) i32 @predicate_classify(ptr noundef readonly captures(none) %0, ptr noundef nonnull writeonly captures(none) %1) unnamed_addr #0 {
  %3 = load i32, ptr %0, align 4
  switch i32 %3, label %.critedge [
    i32 1, label %4
    i32 21, label %is_andclause.exit
    i32 20, label %18
  ]

4:                                                ; preds = %2
  %5 = getelementptr inbounds nuw i8, ptr %1, i64 16
  store ptr @list_startup_fn, ptr %5, align 8
  %6 = getelementptr inbounds nuw i8, ptr %1, i64 24
  store ptr @list_next_fn, ptr %6, align 8
  %7 = getelementptr inbounds nuw i8, ptr %1, i64 32
  store ptr @list_cleanup_fn, ptr %7, align 8
  br label %.critedge

is_andclause.exit:                                ; preds = %2
  %8 = getelementptr inbounds nuw i8, ptr %0, i64 4
  %9 = load i32, ptr %8, align 4
  switch i32 %9, label %.critedge [
    i32 0, label %10
    i32 1, label %14
  ]

10:                                               ; preds = %is_andclause.exit
  %11 = getelementptr inbounds nuw i8, ptr %1, i64 16
  store ptr @boolexpr_startup_fn, ptr %11, align 8
  %12 = getelementptr inbounds nuw i8, ptr %1, i64 24
  store ptr @list_next_fn, ptr %12, align 8
  %13 = getelementptr inbounds nuw i8, ptr %1, i64 32
  store ptr @list_cleanup_fn, ptr %13, align 8
  br label %.critedge

14:                                               ; preds = %is_andclause.exit
  %15 = getelementptr inbounds nuw i8, ptr %1, i64 16
  store ptr @boolexpr_startup_fn, ptr %15, align 8
  %16 = getelementptr inbounds nuw i8, ptr %1, i64 24
  store ptr @list_next_fn, ptr %16, align 8
  %17 = getelementptr inbounds nuw i8, ptr %1, i64 32
  store ptr @list_cleanup_fn, ptr %17, align 8
  br label %.critedge

18:                                               ; preds = %2
  %19 = getelementptr inbounds nuw i8, ptr %0, i64 32
  %20 = load ptr, ptr %19, align 8
  %21 = getelementptr i8, ptr %20, i64 16
  %.val = load ptr, ptr %21, align 8
  %22 = getelementptr inbounds nuw i8, ptr %.val, i64 8
  %23 = load ptr, ptr %22, align 8
  %.not = icmp eq ptr %23, null
  br i1 %.not, label %.critedge, label %24

24:                                               ; preds = %18
  %25 = load i32, ptr %23, align 4
  switch i32 %25, label %.critedge [
    i32 7, label %26
    i32 35, label %48
  ]

26:                                               ; preds = %24
  %27 = getelementptr inbounds nuw i8, ptr %23, i64 32
  %28 = load i8, ptr %27, align 8, !range !14, !noundef !15
  %29 = trunc nuw i8 %28 to i1
  br i1 %29, label %.critedge, label %30

30:                                               ; preds = %26
  %31 = getelementptr inbounds nuw i8, ptr %23, i64 24
  %32 = load i64, ptr %31, align 8
  %33 = inttoptr i64 %32 to ptr
  %34 = tail call ptr @pg_detoast_datum(ptr noundef %33) #7
  %35 = getelementptr inbounds nuw i8, ptr %34, i64 4
  %36 = load i32, ptr %35, align 4
  %37 = getelementptr inbounds nuw i8, ptr %34, i64 16
  %38 = tail call i32 @ArrayGetNItems(i32 noundef %36, ptr noundef nonnull %37) #7
  %39 = icmp sgt i32 %38, 100
  br i1 %39, label %.critedge, label %40

40:                                               ; preds = %30
  %41 = getelementptr inbounds nuw i8, ptr %1, i64 16
  store ptr @arrayconst_startup_fn, ptr %41, align 8
  %42 = getelementptr inbounds nuw i8, ptr %1, i64 24
  store ptr @arrayconst_next_fn, ptr %42, align 8
  %43 = getelementptr inbounds nuw i8, ptr %1, i64 32
  store ptr @arrayconst_cleanup_fn, ptr %43, align 8
  %44 = getelementptr inbounds nuw i8, ptr %0, i64 20
  %45 = load i8, ptr %44, align 4, !range !14, !noundef !15
  %46 = trunc nuw i8 %45 to i1
  %47 = select i1 %46, i32 2, i32 1
  br label %.critedge

48:                                               ; preds = %24
  %49 = getelementptr inbounds nuw i8, ptr %23, i64 24
  %50 = load i8, ptr %49, align 8, !range !14, !noundef !15
  %51 = trunc nuw i8 %50 to i1
  br i1 %51, label %.critedge, label %52

52:                                               ; preds = %48
  %53 = getelementptr inbounds nuw i8, ptr %23, i64 16
  %54 = load ptr, ptr %53, align 8
  %.not.i41 = icmp eq ptr %54, null
  br i1 %.not.i41, label %list_length.exit.thread, label %list_length.exit

list_length.exit:                                 ; preds = %52
  %55 = getelementptr inbounds nuw i8, ptr %54, i64 4
  %56 = load i32, ptr %55, align 4
  %57 = icmp slt i32 %56, 101
  br i1 %57, label %list_length.exit.thread, label %.critedge

list_length.exit.thread:                          ; preds = %52, %list_length.exit
  %58 = getelementptr inbounds nuw i8, ptr %1, i64 16
  store ptr @arrayexpr_startup_fn, ptr %58, align 8
  %59 = getelementptr inbounds nuw i8, ptr %1, i64 24
  store ptr @arrayexpr_next_fn, ptr %59, align 8
  %60 = getelementptr inbounds nuw i8, ptr %1, i64 32
  store ptr @arrayexpr_cleanup_fn, ptr %60, align 8
  %61 = getelementptr inbounds nuw i8, ptr %0, i64 20
  %62 = load i8, ptr %61, align 4, !range !14, !noundef !15
  %63 = trunc nuw i8 %62 to i1
  %64 = select i1 %63, i32 2, i32 1
  br label %.critedge

.critedge:                                        ; preds = %is_andclause.exit, %2, %24, %30, %26, %list_length.exit, %48, %18, %40, %list_length.exit.thread, %14, %10, %4
  %.036 = phi i32 [ 1, %4 ], [ 1, %10 ], [ 2, %14 ], [ %64, %list_length.exit.thread ], [ %47, %40 ], [ 0, %18 ], [ 0, %48 ], [ 0, %list_length.exit ], [ 0, %26 ], [ 0, %30 ], [ 0, %24 ], [ 0, %2 ], [ 0, %is_andclause.exit ]
  ret i32 %.036
}